target datalayout = "e-m:e-p270:32:32-p271:32:32-p272:64:64-i64:64-i128:128-f80:128-n8:16:32:64-S128"
target triple = "x86_64-pc-linux-gnu"

%struct.FT_Matrix_ = type { i64, i64, i64, i64 }

; Function Attrs: inlinehint nounwind uwtable
define internal i32 @FT_MulFix_x86_64(i32 noundef %0, i32 noundef %1) #2 {
  %3 = alloca i32, align 4
  %4 = alloca i32, align 4
  %5 = alloca i64, align 8
  %6 = alloca i64, align 8
  store i32 %0, ptr %3, align 4, !tbaa !8
  store i32 %1, ptr %4, align 4, !tbaa !8
  call void @llvm.lifetime.start.p0(i64 8, ptr %5) #10
  call void @llvm.lifetime.start.p0(i64 8, ptr %6) #10
  %7 = load i32, ptr %3, align 4, !tbaa !8
  %8 = sext i32 %7 to i64
  %9 = load i32, ptr %4, align 4, !tbaa !8
  %10 = sext i32 %9 to i64
  %11 = mul nsw i64 %8, %10
  store i64 %11, ptr %5, align 8, !tbaa !154
  %12 = load i64, ptr %5, align 8, !tbaa !154
  %13 = ashr i64 %12, 63
  store i64 %13, ptr %6, align 8, !tbaa !154
  %14 = load i64, ptr %6, align 8, !tbaa !154
  %15 = add nsw i64 32768, %14
  %16 = load i64, ptr %5, align 8, !tbaa !154
  %17 = add nsw i64 %16, %15
  store i64 %17, ptr %5, align 8, !tbaa !154
  %18 = load i64, ptr %5, align 8, !tbaa !154
  %19 = ashr i64 %18, 16
  %20 = trunc i64 %19 to i32
  call void @llvm.lifetime.end.p0(i64 8, ptr %6) #10
  call void @llvm.lifetime.end.p0(i64 8, ptr %5) #10
  ret i32 %20
}

; Function Attrs: nounwind uwtable
define i64 @FT_DivFix(i64 noundef %0, i64 noundef %1) #0 {
  %3 = alloca i64, align 8
  %4 = alloca i64, align 8
  %5 = alloca i32, align 4
  %6 = alloca i64, align 8
  %7 = alloca i64, align 8
  %8 = alloca i64, align 8
  %9 = alloca i64, align 8
  store i64 %0, ptr %3, align 8, !tbaa !47
  store i64 %1, ptr %4, align 8, !tbaa !47
  call void @llvm.lifetime.start.p0(i64 4, ptr %5) #10
  store i32 1, ptr %5, align 4, !tbaa !8
  call void @llvm.lifetime.start.p0(i64 8, ptr %6) #10
  call void @llvm.lifetime.start.p0(i64 8, ptr %7) #10
  call void @llvm.lifetime.start.p0(i64 8, ptr %8) #10
  call void @llvm.lifetime.start.p0(i64 8, ptr %9) #10
  br label %10

10:                                               ; preds = %2
  %11 = load i64, ptr %3, align 8, !tbaa !47
  %12 = icmp slt i64 %11, 0
  br i1 %12, label %13, label %18

13:                                               ; preds = %10
  %14 = load i64, ptr %3, align 8, !tbaa !47
  %15 = sub i64 0, %14
  store i64 %15, ptr %6, align 8, !tbaa !47
  %16 = load i32, ptr %5, align 4, !tbaa !8
  %17 = sub nsw i32 0, %16
  store i32 %17, ptr %5, align 4, !tbaa !8
  br label %20

18:                                               ; preds = %10
  %19 = load i64, ptr %3, align 8, !tbaa !47
  store i64 %19, ptr %6, align 8, !tbaa !47
  br label %20

20:                                               ; preds = %18, %13
  br label %21

21:                                               ; preds = %20
  br label %22

22:                                               ; preds = %21
  br label %23

23:                                               ; preds = %22
  %24 = load i64, ptr %4, align 8, !tbaa !47
  %25 = icmp slt i64 %24, 0
  br i1 %25, label %26, label %31

26:                                               ; preds = %23
  %27 = load i64, ptr %4, align 8, !tbaa !47
  %28 = sub i64 0, %27
  store i64 %28, ptr %7, align 8, !tbaa !47
  %29 = load i32, ptr %5, align 4, !tbaa !8
  %30 = sub nsw i32 0, %29
  store i32 %30, ptr %5, align 4, !tbaa !8
  br label %33

31:                                               ; preds = %23
  %32 = load i64, ptr %4, align 8, !tbaa !47
  store i64 %32, ptr %7, align 8, !tbaa !47
  br label %33

33:                                               ; preds = %31, %26
  br label %34

34:                                               ; preds = %33
  br label %35

35:                                               ; preds = %34
  %36 = load i64, ptr %7, align 8, !tbaa !47
  %37 = icmp ugt i64 %36, 0
  br i1 %37, label %38, label %46

38:                                               ; preds = %35
  %39 = load i64, ptr %6, align 8, !tbaa !47
  %40 = shl i64 %39, 16
  %41 = load i64, ptr %7, align 8, !tbaa !47
  %42 = lshr i64 %41, 1
  %43 = add i64 %40, %42
  %44 = load i64, ptr %7, align 8, !tbaa !47
  %45 = udiv i64 %43, %44
  br label %47

46:                                               ; preds = %35
  br label %47

47:                                               ; preds = %46, %38
  %48 = phi i64 [ %45, %38 ], [ 2147483647, %46 ]
  store i64 %48, ptr %8, align 8, !tbaa !47
  %49 = load i64, ptr %8, align 8, !tbaa !47
  store i64 %49, ptr %9, align 8, !tbaa !47
  %50 = load i32, ptr %5, align 4, !tbaa !8
  %51 = icmp slt i32 %50, 0
  br i1 %51, label %52, label %55

52:                                               ; preds = %47
  %53 = load i64, ptr %9, align 8, !tbaa !47
  %54 = sub i64 0, %53
  br label %57

55:                                               ; preds = %47
  %56 = load i64, ptr %9, align 8, !tbaa !47
  br label %57

57:                                               ; preds = %55, %52
  %58 = phi i64 [ %54, %52 ], [ %56, %55 ]
  call void @llvm.lifetime.end.p0(i64 8, ptr %9) #10
  call void @llvm.lifetime.end.p0(i64 8, ptr %8) #10
  call void @llvm.lifetime.end.p0(i64 8, ptr %7) #10
  call void @llvm.lifetime.end.p0(i64 8, ptr %6) #10
  call void @llvm.lifetime.end.p0(i64 4, ptr %5) #10
  ret i64 %58
}

; Function Attrs: nounwind uwtable
define i64 @FT_MulFix(i64 noundef %0, i64 noundef %1) #0 {
  %3 = alloca i64, align 8
  %4 = alloca i64, align 8
  store i64 %0, ptr %3, align 8, !tbaa !47
  store i64 %1, ptr %4, align 8, !tbaa !47
  %5 = load i64, ptr %3, align 8, !tbaa !47
  %6 = trunc i64 %5 to i32
  %7 = load i64, ptr %4, align 8, !tbaa !47
  %8 = trunc i64 %7 to i32
  %9 = call i32 @FT_MulFix_x86_64(i32 noundef %6, i32 noundef %8)
  %10 = sext i32 %9 to i64
  ret i64 %10
}

; Function Attrs: nounwind uwtable
define i32 @FT_Matrix_Invert(ptr noundef %0) #0 {
  %2 = alloca i32, align 4
  %3 = alloca ptr, align 8
  %4 = alloca i64, align 8
  %5 = alloca i64, align 8
  %6 = alloca i64, align 8
  %7 = alloca i32, align 4
  store ptr %0, ptr %3, align 8, !tbaa !156
  call void @llvm.lifetime.start.p0(i64 8, ptr %4) #10
  call void @llvm.lifetime.start.p0(i64 8, ptr %5) #10
  call void @llvm.lifetime.start.p0(i64 8, ptr %6) #10
  %8 = load ptr, ptr %3, align 8, !tbaa !156
  %9 = icmp ne ptr %8, null
  br i1 %9, label %11, label %10

10:                                               ; preds = %1
  store i32 6, ptr %2, align 4
  store i32 1, ptr %7, align 4
  br label %63

11:                                               ; preds = %1
  %12 = load ptr, ptr %3, align 8, !tbaa !156
  %13 = getelementptr inbounds nuw %struct.FT_Matrix_, ptr %12, i32 0, i32 0
  %14 = load i64, ptr %13, align 8, !tbaa !158
  %15 = load ptr, ptr %3, align 8, !tbaa !156
  %16 = getelementptr inbounds nuw %struct.FT_Matrix_, ptr %15, i32 0, i32 3
  %17 = load i64, ptr %16, align 8, !tbaa !161
  %18 = call i64 @FT_MulFix(i64 noundef %14, i64 noundef %17)
  %19 = load ptr, ptr %3, align 8, !tbaa !156
  %20 = getelementptr inbounds nuw %struct.FT_Matrix_, ptr %19, i32 0, i32 1
  %21 = load i64, ptr %20, align 8, !tbaa !159
  %22 = load ptr, ptr %3, align 8, !tbaa !156
  %23 = getelementptr inbounds nuw %struct.FT_Matrix_, ptr %22, i32 0, i32 2
  %24 = load i64, ptr %23, align 8, !tbaa !160
  %25 = call i64 @FT_MulFix(i64 noundef %21, i64 noundef %24)
  %26 = sub nsw i64 %18, %25
  store i64 %26, ptr %4, align 8, !tbaa !47
  %27 = load i64, ptr %4, align 8, !tbaa !47
  %28 = icmp ne i64 %27, 0
  br i1 %28, label %30, label %29

29:                                               ; preds = %11
  store i32 6, ptr %2, align 4
  store i32 1, ptr %7, align 4
  br label %63

30:                                               ; preds = %11
  %31 = load ptr, ptr %3, align 8, !tbaa !156
  %32 = getelementptr inbounds nuw %struct.FT_Matrix_, ptr %31, i32 0, i32 1
  %33 = load i64, ptr %32, align 8, !tbaa !159
  %34 = load i64, ptr %4, align 8, !tbaa !47
  %35 = call i64 @FT_DivFix(i64 noundef %33, i64 noundef %34)
  %36 = sub nsw i64 0, %35
  %37 = load ptr, ptr %3, align 8, !tbaa !156
  %38 = getelementptr inbounds nuw %struct.FT_Matrix_, ptr %37, i32 0, i32 1
  store i64 %36, ptr %38, align 8, !tbaa !159
  %39 = load ptr, ptr %3, align 8, !tbaa !156
  %40 = getelementptr inbounds nuw %struct.FT_Matrix_, ptr %39, i32 0, i32 2
  %41 = load i64, ptr %40, align 8, !tbaa !160
  %42 = load i64, ptr %4, align 8, !tbaa !47
  %43 = call i64 @FT_DivFix(i64 noundef %41, i64 noundef %42)
  %44 = sub nsw i64 0, %43
  %45 = load ptr, ptr %3, align 8, !tbaa !156
  %46 = getelementptr inbounds nuw %struct.FT_Matrix_, ptr %45, i32 0, i32 2
  store i64 %44, ptr %46, align 8, !tbaa !160
  %47 = load ptr, ptr %3, align 8, !tbaa !156
  %48 = getelementptr inbounds nuw %struct.FT_Matrix_, ptr %47, i32 0, i32 0
  %49 = load i64, ptr %48, align 8, !tbaa !158
  store i64 %49, ptr %5, align 8, !tbaa !47
  %50 = load ptr, ptr %3, align 8, !tbaa !156
  %51 = getelementptr inbounds nuw %struct.FT_Matrix_, ptr %50, i32 0, i32 3
  %52 = load i64, ptr %51, align 8, !tbaa !161
  store i64 %52, ptr %6, align 8, !tbaa !47
  %53 = load i64, ptr %6, align 8, !tbaa !47
  %54 = load i64, ptr %4, align 8, !tbaa !47
  %55 = call i64 @FT_DivFix(i64 noundef %53, i64 noundef %54)
  %56 = load ptr, ptr %3, align 8, !tbaa !156
  %57 = getelementptr inbounds nuw %struct.FT_Matrix_, ptr %56, i32 0, i32 0
  store i64 %55, ptr %57, align 8, !tbaa !158
  %58 = load i64, ptr %5, align 8, !tbaa !47
  %59 = load i64, ptr %4, align 8, !tbaa !47
  %60 = call i64 @FT_DivFix(i64 noundef %58, i64 noundef %59)
  %61 = load ptr, ptr %3, align 8, !tbaa !156
  %62 = getelementptr inbounds nuw %struct.FT_Matrix_, ptr %61, i32 0, i32 3
  store i64 %60, ptr %62, align 8, !tbaa !161
  store i32 0, ptr %2, align 4
  store i32 1, ptr %7, align 4
  br label %63

63:                                               ; preds = %30, %29, %10
  call void @llvm.lifetime.end.p0(i64 8, ptr %6) #10
  call void @llvm.lifetime.end.p0(i64 8, ptr %5) #10
  call void @llvm.lifetime.end.p0(i64 8, ptr %4) #10
  %64 = load i32, ptr %2, align 4
  ret i32 %64
}