; Function Attrs: mustprogress nofree norecurse nosync nounwind willreturn memory(argmem: readwrite) uwtable
define range(i32 0, 7) i32 @FT_Matrix_Invert(ptr noundef %0) local_unnamed_addr #6 {
  %.not = icmp eq ptr %0, null
  br i1 %.not, label %56, label %2

2:                                                ; preds = %1
  %3 = load i64, ptr %0, align 8, !tbaa !160
  %4 = getelementptr inbounds nuw i8, ptr %0, i64 24
  %5 = load i64, ptr %4, align 8, !tbaa !163
  %sext.i = shl i64 %3, 32
  %6 = ashr exact i64 %sext.i, 32
  %sext2.i = shl i64 %5, 32
  %7 = ashr exact i64 %sext2.i, 32
  %8 = mul nsw i64 %7, %6
  %9 = ashr i64 %8, 63
  %10 = add nsw i64 %8, 32768
  %11 = add nsw i64 %10, %9
  %12 = shl i64 %11, 16
  %13 = ashr i64 %12, 32
  %14 = getelementptr inbounds nuw i8, ptr %0, i64 8
  %15 = load i64, ptr %14, align 8, !tbaa !161
  %16 = getelementptr inbounds nuw i8, ptr %0, i64 16
  %17 = load i64, ptr %16, align 8, !tbaa !162
  %sext.i23 = shl i64 %15, 32
  %18 = ashr exact i64 %sext.i23, 32
  %sext2.i24 = shl i64 %17, 32
  %19 = ashr exact i64 %sext2.i24, 32
  %20 = mul nsw i64 %19, %18
  %21 = ashr i64 %20, 63
  %22 = add nsw i64 %20, 32768
  %23 = add nsw i64 %22, %21
  %24 = shl i64 %23, 16
  %25 = ashr i64 %24, 32
  %.not22 = icmp eq i64 %13, %25
  br i1 %.not22, label %56, label %FT_DivFix.exit36

FT_DivFix.exit36:                                 ; preds = %2
  %26 = sub nsw i64 %13, %25
  %.017.i = tail call i64 @llvm.abs.i64(i64 %26, i1 true)
  %.016.i = tail call i64 @llvm.abs.i64(i64 %15, i1 false)
  %27 = shl i64 %.016.i, 16
  %28 = lshr i64 %.017.i, 1
  %29 = add i64 %28, %27
  %30 = udiv i64 %29, %.017.i
  %31 = xor i64 %26, %15
  %32 = icmp slt i64 %31, 0
  %33 = sub i64 0, %30
  %34 = select i1 %32, i64 %30, i64 %33
  store i64 %34, ptr %14, align 8, !tbaa !161
  %.016.i27 = tail call i64 @llvm.abs.i64(i64 %17, i1 false)
  %35 = shl i64 %.016.i27, 16
  %36 = add i64 %28, %35
  %37 = udiv i64 %36, %.017.i
  %38 = xor i64 %26, %17
  %39 = icmp slt i64 %38, 0
  %40 = sub i64 0, %37
  %41 = select i1 %39, i64 %37, i64 %40
  store i64 %41, ptr %16, align 8, !tbaa !162
  %.016.i31 = tail call i64 @llvm.abs.i64(i64 %5, i1 false)
  %42 = shl i64 %.016.i31, 16
  %43 = add i64 %28, %42
  %44 = udiv i64 %43, %.017.i
  %45 = xor i64 %26, %5
  %46 = icmp slt i64 %45, 0
  %47 = sub i64 0, %44
  %48 = select i1 %46, i64 %47, i64 %44
  store i64 %48, ptr %0, align 8, !tbaa !160
  %.016.i35 = tail call i64 @llvm.abs.i64(i64 %3, i1 false)
  %49 = shl i64 %.016.i35, 16
  %50 = add i64 %28, %49
  %51 = udiv i64 %50, %.017.i
  %52 = xor i64 %26, %3
  %53 = icmp slt i64 %52, 0
  %54 = sub i64 0, %51
  %55 = select i1 %53, i64 %54, i64 %51
  store i64 %55, ptr %4, align 8, !tbaa !163
  br label %56

56:                                               ; preds = %2, %1, %FT_DivFix.exit36
  %.0 = phi i32 [ 0, %FT_DivFix.exit36 ], [ 6, %1 ], [ 6, %2 ]
  ret i32 %.0
}